; Function Attrs: nounwind sspstrong uwtable
define internal fastcc ptr @append_argument(ptr noundef captures(none) %options, i32 noundef range(i32 0, 5) %type) unnamed_addr #1 {
entry:
  %capacity.i = getelementptr inbounds nuw i8, ptr %options, i64 84
  %0 = load i32, ptr %capacity.i, align 4
  %cmp.i = icmp eq i32 %0, 0
  br i1 %cmp.i, label %if.then.i, label %if.end15.i

if.then.i:                                        ; preds = %entry
  store i32 50, ptr %capacity.i, align 4
  %call.i = tail call noalias dereferenceable_or_null(1200) ptr @malloc(i64 noundef 1200) #24
  %arguments.i = getelementptr inbounds nuw i8, ptr %options, i64 72
  store ptr %call.i, ptr %arguments.i, align 8
  %cmp6.i = icmp eq ptr %call.i, null
  br i1 %cmp6.i, label %if.then8.i, label %if.end.i

if.then8.i:                                       ; preds = %if.then.i
  tail call void @die(ptr noundef nonnull @.str.95) #20
  %.pre.i = load ptr, ptr %arguments.i, align 8
  %.pre24.i = load i32, ptr %capacity.i, align 4
  %1 = zext i32 %.pre24.i to i64
  %2 = mul nuw nsw i64 %1, 24
  br label %if.end.i

if.end.i:                                         ; preds = %if.then8.i, %if.then.i
  %conv13.i = phi i64 [ %2, %if.then8.i ], [ 1200, %if.then.i ]
  %3 = phi ptr [ %.pre.i, %if.then8.i ], [ %call.i, %if.then.i ]
  tail call void @llvm.memset.p0.i64(ptr align 8 %3, i8 0, i64 %conv13.i, i1 false)
  %.pr.i = load i32, ptr %capacity.i, align 4
  br label %if.end15.i

if.end15.i:                                       ; preds = %if.end.i, %entry
  %4 = phi i32 [ %.pr.i, %if.end.i ], [ %0, %entry ]
  %num_arguments.i = getelementptr inbounds nuw i8, ptr %options, i64 80
  %5 = load i32, ptr %num_arguments.i, align 8
  %cmp19.not.i = icmp ugt i32 %4, %5
  br i1 %cmp19.not.i, label %append_new_argument.exit, label %if.then21.i

if.then21.i:                                      ; preds = %if.end15.i
  %cmp26.i = icmp slt i32 %4, 0
  br i1 %cmp26.i, label %if.then28.i, label %if.end29.i

if.then28.i:                                      ; preds = %if.then21.i
  tail call void @die(ptr noundef nonnull @.str.95) #20
  %.pre25.i = load i32, ptr %capacity.i, align 4
  br label %if.end29.i

if.end29.i:                                       ; preds = %if.then28.i, %if.then21.i
  %6 = phi i32 [ %.pre25.i, %if.then28.i ], [ %4, %if.then21.i ]
  %mul32.i = shl i32 %6, 1
  store i32 %mul32.i, ptr %capacity.i, align 4
  %arguments34.i = getelementptr inbounds nuw i8, ptr %options, i64 72
  %7 = load ptr, ptr %arguments34.i, align 8
  %tobool1.not.i.i = icmp eq i32 %mul32.i, 0
  br i1 %tobool1.not.i.i, label %safe_realloc_mul_2op_.exit.i, label %if.end3.i.i

if.end3.i.i:                                      ; preds = %if.end29.i
  %conv37.i = zext i32 %mul32.i to i64
  %mul.i.i = mul nuw nsw i64 %conv37.i, 24
  %call.i.i.i = tail call ptr @realloc(ptr noundef %7, i64 noundef range(i64 24, 206158430161) %mul.i.i) #25
  %cmp1.i.i.i = icmp eq ptr %call.i.i.i, null
  br i1 %cmp1.i.i.i, label %safe_realloc_mul_2op_.exit.thread.i, label %safe_realloc_mul_2op_.exit.thread21.i

safe_realloc_mul_2op_.exit.thread21.i:            ; preds = %if.end3.i.i
  store ptr %call.i.i.i, ptr %arguments34.i, align 8
  br label %if.end44.i

safe_realloc_mul_2op_.exit.thread.i:              ; preds = %if.end3.i.i
  tail call void @free(ptr noundef %7) #20
  store ptr null, ptr %arguments34.i, align 8
  br label %if.then43.i

safe_realloc_mul_2op_.exit.i:                     ; preds = %if.end29.i
  %call.i.i = tail call ptr @realloc(ptr noundef %7, i64 noundef 0) #25
  store ptr %call.i.i, ptr %arguments34.i, align 8
  %cmp41.i = icmp eq ptr %call.i.i, null
  br i1 %cmp41.i, label %if.then43.i, label %if.end44.i

if.then43.i:                                      ; preds = %safe_realloc_mul_2op_.exit.i, %safe_realloc_mul_2op_.exit.thread.i
  tail call void @die(ptr noundef nonnull @.str.95) #20
  %.pre26.i = load ptr, ptr %arguments34.i, align 8
  br label %if.end44.i

if.end44.i:                                       ; preds = %if.then43.i, %safe_realloc_mul_2op_.exit.i, %safe_realloc_mul_2op_.exit.thread21.i
  %8 = phi ptr [ %call.i.i.i, %safe_realloc_mul_2op_.exit.thread21.i ], [ %.pre26.i, %if.then43.i ], [ %call.i.i, %safe_realloc_mul_2op_.exit.i ]
  %idx.ext.i = zext i32 %4 to i64
  %add.ptr.i = getelementptr inbounds nuw %struct.Argument, ptr %8, i64 %idx.ext.i
  %9 = load i32, ptr %capacity.i, align 4
  %sub.i = sub i32 %9, %4
  %conv49.i = zext i32 %sub.i to i64
  %mul50.i = mul nuw nsw i64 %conv49.i, 24
  tail call void @llvm.memset.p0.i64(ptr align 8 %add.ptr.i, i8 0, i64 %mul50.i, i1 false)
  %.pre27.i = load i32, ptr %num_arguments.i, align 8
  br label %append_new_argument.exit

append_new_argument.exit:                         ; preds = %if.end15.i, %if.end44.i
  %10 = phi i32 [ %.pre27.i, %if.end44.i ], [ %5, %if.end15.i ]
  %arguments53.i = getelementptr inbounds nuw i8, ptr %options, i64 72
  %11 = load ptr, ptr %arguments53.i, align 8
  %inc.i = add i32 %10, 1
  store i32 %inc.i, ptr %num_arguments.i, align 8
  %idxprom.i = zext i32 %10 to i64
  %arrayidx.i = getelementptr inbounds nuw %struct.Argument, ptr %11, i64 %idxprom.i
  store i32 %type, ptr %arrayidx.i, align 8
  %arg3.sroa.4.0.arrayidx.i.sroa_idx = getelementptr inbounds nuw i8, ptr %arrayidx.i, i64 4
  tail call void @llvm.memset.p0.i64(ptr noundef nonnull align 4 dereferenceable(20) %arg3.sroa.4.0.arrayidx.i.sroa_idx, i8 0, i64 20, i1 false)
  %12 = load ptr, ptr %arguments53.i, align 8
  %13 = load i32, ptr %num_arguments.i, align 8
  %sub = add i32 %13, -1
  %idx.ext = zext i32 %sub to i64
  %add.ptr = getelementptr inbounds nuw %struct.Argument, ptr %12, i64 %idx.ext
  ret ptr %add.ptr
}